; ModuleID = 'source-C-CXX/11/672.cpp'
source_filename = "source-C-CXX/11/672.cpp"
target datalayout = "e-m:e-p270:32:32-p271:32:32-p272:64:64-i64:64-f80:128-n8:16:32:64-S128"
target triple = "x86_64-pc-linux-gnu"

%"class.std::ios_base::Init" = type { i8 }
%"class.std::basic_istream" = type { i32 (...)**, i64, %"class.std::basic_ios" }
%"class.std::basic_ios" = type { %"class.std::ios_base", %"class.std::basic_ostream"*, i8, i8, %"class.std::basic_streambuf"*, %"class.std::ctype"*, %"class.std::num_put"*, %"class.std::num_get"* }
%"class.std::ios_base" = type { i32 (...)**, i64, i64, i32, i32, i32, %"struct.std::ios_base::_Callback_list"*, %"struct.std::ios_base::_Words", [8 x %"struct.std::ios_base::_Words"], i32, %"struct.std::ios_base::_Words"*, %"class.std::locale" }
%"struct.std::ios_base::_Callback_list" = type { %"struct.std::ios_base::_Callback_list"*, void (i32, %"class.std::ios_base"*, i32)*, i32, i32 }
%"struct.std::ios_base::_Words" = type { i8*, i64 }
%"class.std::locale" = type { %"class.std::locale::_Impl"* }
%"class.std::locale::_Impl" = type { i32, %"class.std::locale::facet"**, i64, %"class.std::locale::facet"**, i8** }
%"class.std::locale::facet" = type <{ i32 (...)**, i32, [4 x i8] }>
%"class.std::basic_ostream" = type { i32 (...)**, %"class.std::basic_ios" }
%"class.std::basic_streambuf" = type { i32 (...)**, i8*, i8*, i8*, i8*, i8*, i8*, %"class.std::locale" }
%"class.std::ctype" = type <{ %"class.std::locale::facet.base", [4 x i8], %struct.__locale_struct*, i8, [7 x i8], i32*, i32*, i16*, i8, [256 x i8], [256 x i8], i8, [6 x i8] }>
%"class.std::locale::facet.base" = type <{ i32 (...)**, i32 }>
%struct.__locale_struct = type { [13 x %struct.__locale_data*], i16*, i32*, i32*, [13 x i8*] }
%struct.__locale_data = type opaque
%"class.std::num_put" = type { %"class.std::locale::facet.base", [4 x i8] }
%"class.std::num_get" = type { %"class.std::locale::facet.base", [4 x i8] }

@_ZStL8__ioinit = internal global %"class.std::ios_base::Init" zeroinitializer, align 1
@__dso_handle = external hidden global i8
@_ZSt3cin = external global %"class.std::basic_istream", align 8
@_ZSt4cout = external global %"class.std::basic_ostream", align 8
@llvm.global_ctors = appending global [1 x { i32, void ()*, i8* }] [{ i32, void ()*, i8* } { i32 65535, void ()* @_GLOBAL__sub_I_672.cpp, i8* null }]

declare void @_ZNSt8ios_base4InitC1Ev(%"class.std::ios_base::Init"* nonnull align 1 dereferenceable(1)) unnamed_addr #0

; Function Attrs: nounwind
declare void @_ZNSt8ios_base4InitD1Ev(%"class.std::ios_base::Init"* nonnull align 1 dereferenceable(1)) unnamed_addr #1

; Function Attrs: nofree nounwind
declare i32 @__cxa_atexit(void (i8*)*, i8*, i8*) local_unnamed_addr #2

; Function Attrs: mustprogress norecurse sspstrong uwtable
define dso_local i32 @main() local_unnamed_addr #3 {
  %1 = alloca [15 x i32], align 16
  %2 = bitcast [15 x i32]* %1 to i8*
  call void @llvm.lifetime.start.p0i8(i64 60, i8* nonnull %2) #8
  %3 = getelementptr inbounds [15 x i32], [15 x i32]* %1, i64 0, i64 0
  %4 = call nonnull align 8 dereferenceable(16) %"class.std::basic_istream"* @_ZNSirsERi(%"class.std::basic_istream"* nonnull align 8 dereferenceable(16) @_ZSt3cin, i32* nonnull align 4 dereferenceable(4) %3)
  %5 = bitcast %"class.std::basic_istream"* %4 to i8**
  %6 = load i8*, i8** %5, align 8, !tbaa !5
  %7 = getelementptr i8, i8* %6, i64 -24
  %8 = bitcast i8* %7 to i64*
  %9 = load i64, i64* %8, align 8
  %10 = bitcast %"class.std::basic_istream"* %4 to i8*
  %11 = add nsw i64 %9, 32
  %12 = getelementptr inbounds i8, i8* %10, i64 %11
  %13 = bitcast i8* %12 to i32*
  %14 = load i32, i32* %13, align 8, !tbaa !8
  %15 = and i32 %14, 5
  %16 = icmp ne i32 %15, 0
  %17 = load i32, i32* %3, align 16
  %18 = icmp eq i32 %17, -1
  %19 = select i1 %16, i1 true, i1 %18
  br i1 %19, label %156, label %20

20:                                               ; preds = %0, %29
  %21 = phi i64 [ %30, %29 ], [ 0, %0 ]
  %22 = phi i32 [ %31, %29 ], [ 0, %0 ]
  %23 = add nuw nsw i64 %21, 1
  %24 = add nuw i32 %22, 1
  %25 = getelementptr inbounds [15 x i32], [15 x i32]* %1, i64 0, i64 %23
  %26 = call nonnull align 8 dereferenceable(16) %"class.std::basic_istream"* @_ZNSirsERi(%"class.std::basic_istream"* nonnull align 8 dereferenceable(16) @_ZSt3cin, i32* nonnull align 4 dereferenceable(4) %25)
  %27 = load i32, i32* %25, align 4, !tbaa !18
  %28 = icmp eq i32 %27, 0
  br i1 %28, label %32, label %29

29:                                               ; preds = %20, %136
  %30 = phi i64 [ %23, %20 ], [ 0, %136 ]
  %31 = phi i32 [ %24, %20 ], [ 0, %136 ]
  br label %20, !llvm.loop !19

32:                                               ; preds = %20
  %33 = zext i32 %22 to i64
  %34 = zext i32 %24 to i64
  br label %39

35:                                               ; preds = %96, %89, %39
  %36 = phi i32 [ %42, %39 ], [ %91, %89 ], [ %106, %96 ]
  %37 = add nuw nsw i64 %41, 1
  %38 = icmp eq i64 %45, %34
  br i1 %38, label %109, label %39, !llvm.loop !21

39:                                               ; preds = %32, %35
  %40 = phi i64 [ 0, %32 ], [ %45, %35 ]
  %41 = phi i64 [ 1, %32 ], [ %37, %35 ]
  %42 = phi i32 [ 0, %32 ], [ %36, %35 ]
  %43 = xor i64 %40, -1
  %44 = add nsw i64 %43, %34
  %45 = add nuw nsw i64 %40, 1
  %46 = icmp ult i64 %40, %33
  br i1 %46, label %47, label %35

47:                                               ; preds = %39
  %48 = getelementptr inbounds [15 x i32], [15 x i32]* %1, i64 0, i64 %40
  %49 = load i32, i32* %48, align 4, !tbaa !18
  %50 = shl nsw i32 %49, 1
  %51 = icmp ult i64 %44, 8
  br i1 %51, label %93, label %52

52:                                               ; preds = %47
  %53 = and i64 %44, -8
  %54 = add i64 %41, %53
  %55 = insertelement <4 x i32> <i32 poison, i32 0, i32 0, i32 0>, i32 %42, i32 0
  %56 = insertelement <4 x i32> poison, i32 %49, i32 0
  %57 = shufflevector <4 x i32> %56, <4 x i32> poison, <4 x i32> zeroinitializer
  %58 = insertelement <4 x i32> poison, i32 %49, i32 0
  %59 = shufflevector <4 x i32> %58, <4 x i32> poison, <4 x i32> zeroinitializer
  %60 = insertelement <4 x i32> poison, i32 %50, i32 0
  %61 = shufflevector <4 x i32> %60, <4 x i32> poison, <4 x i32> zeroinitializer
  %62 = insertelement <4 x i32> poison, i32 %50, i32 0
  %63 = shufflevector <4 x i32> %62, <4 x i32> poison, <4 x i32> zeroinitializer
  br label %64

64:                                               ; preds = %64, %52
  %65 = phi i64 [ 0, %52 ], [ %87, %64 ]
  %66 = phi <4 x i32> [ %55, %52 ], [ %85, %64 ]
  %67 = phi <4 x i32> [ zeroinitializer, %52 ], [ %86, %64 ]
  %68 = add i64 %41, %65
  %69 = getelementptr inbounds [15 x i32], [15 x i32]* %1, i64 0, i64 %68
  %70 = bitcast i32* %69 to <4 x i32>*
  %71 = load <4 x i32>, <4 x i32>* %70, align 4, !tbaa !18
  %72 = getelementptr inbounds i32, i32* %69, i64 4
  %73 = bitcast i32* %72 to <4 x i32>*
  %74 = load <4 x i32>, <4 x i32>* %73, align 4, !tbaa !18
  %75 = shl nsw <4 x i32> %71, <i32 1, i32 1, i32 1, i32 1>
  %76 = shl nsw <4 x i32> %74, <i32 1, i32 1, i32 1, i32 1>
  %77 = icmp eq <4 x i32> %57, %75
  %78 = icmp eq <4 x i32> %59, %76
  %79 = icmp eq <4 x i32> %71, %61
  %80 = icmp eq <4 x i32> %74, %63
  %81 = select <4 x i1> %77, <4 x i1> <i1 true, i1 true, i1 true, i1 true>, <4 x i1> %79
  %82 = select <4 x i1> %78, <4 x i1> <i1 true, i1 true, i1 true, i1 true>, <4 x i1> %80
  %83 = zext <4 x i1> %81 to <4 x i32>
  %84 = zext <4 x i1> %82 to <4 x i32>
  %85 = add <4 x i32> %66, %83
  %86 = add <4 x i32> %67, %84
  %87 = add nuw i64 %65, 8
  %88 = icmp eq i64 %87, %53
  br i1 %88, label %89, label %64, !llvm.loop !22

89:                                               ; preds = %64
  %90 = add <4 x i32> %86, %85
  %91 = call i32 @llvm.vector.reduce.add.v4i32(<4 x i32> %90)
  %92 = icmp eq i64 %44, %53
  br i1 %92, label %35, label %93

93:                                               ; preds = %47, %89
  %94 = phi i64 [ %41, %47 ], [ %54, %89 ]
  %95 = phi i32 [ %42, %47 ], [ %91, %89 ]
  br label %96

96:                                               ; preds = %93, %96
  %97 = phi i64 [ %107, %96 ], [ %94, %93 ]
  %98 = phi i32 [ %106, %96 ], [ %95, %93 ]
  %99 = getelementptr inbounds [15 x i32], [15 x i32]* %1, i64 0, i64 %97
  %100 = load i32, i32* %99, align 4, !tbaa !18
  %101 = shl nsw i32 %100, 1
  %102 = icmp eq i32 %49, %101
  %103 = icmp eq i32 %100, %50
  %104 = select i1 %102, i1 true, i1 %103
  %105 = zext i1 %104 to i32
  %106 = add nsw i32 %98, %105
  %107 = add nuw nsw i64 %97, 1
  %108 = icmp eq i64 %107, %34
  br i1 %108, label %35, label %96, !llvm.loop !24

109:                                              ; preds = %35
  %110 = call nonnull align 8 dereferenceable(8) %"class.std::basic_ostream"* @_ZNSolsEi(%"class.std::basic_ostream"* nonnull align 8 dereferenceable(8) @_ZSt4cout, i32 %36)
  %111 = bitcast %"class.std::basic_ostream"* %110 to i8**
  %112 = load i8*, i8** %111, align 8, !tbaa !5
  %113 = getelementptr i8, i8* %112, i64 -24
  %114 = bitcast i8* %113 to i64*
  %115 = load i64, i64* %114, align 8
  %116 = bitcast %"class.std::basic_ostream"* %110 to i8*
  %117 = add nsw i64 %115, 240
  %118 = getelementptr inbounds i8, i8* %116, i64 %117
  %119 = bitcast i8* %118 to %"class.std::ctype"**
  %120 = load %"class.std::ctype"*, %"class.std::ctype"** %119, align 8, !tbaa !26
  %121 = icmp eq %"class.std::ctype"* %120, null
  br i1 %121, label %122, label %123

122:                                              ; preds = %109
  call void @_ZSt16__throw_bad_castv() #9
  unreachable

123:                                              ; preds = %109
  %124 = getelementptr inbounds %"class.std::ctype", %"class.std::ctype"* %120, i64 0, i32 8
  %125 = load i8, i8* %124, align 8, !tbaa !29
  %126 = icmp eq i8 %125, 0
  br i1 %126, label %130, label %127

127:                                              ; preds = %123
  %128 = getelementptr inbounds %"class.std::ctype", %"class.std::ctype"* %120, i64 0, i32 9, i64 10
  %129 = load i8, i8* %128, align 1, !tbaa !31
  br label %136

130:                                              ; preds = %123
  call void @_ZNKSt5ctypeIcE13_M_widen_initEv(%"class.std::ctype"* nonnull align 8 dereferenceable(570) %120)
  %131 = bitcast %"class.std::ctype"* %120 to i8 (%"class.std::ctype"*, i8)***
  %132 = load i8 (%"class.std::ctype"*, i8)**, i8 (%"class.std::ctype"*, i8)*** %131, align 8, !tbaa !5
  %133 = getelementptr inbounds i8 (%"class.std::ctype"*, i8)*, i8 (%"class.std::ctype"*, i8)** %132, i64 6
  %134 = load i8 (%"class.std::ctype"*, i8)*, i8 (%"class.std::ctype"*, i8)** %133, align 8
  %135 = call signext i8 %134(%"class.std::ctype"* nonnull align 8 dereferenceable(570) %120, i8 signext 10)
  br label %136

136:                                              ; preds = %127, %130
  %137 = phi i8 [ %129, %127 ], [ %135, %130 ]
  %138 = call nonnull align 8 dereferenceable(8) %"class.std::basic_ostream"* @_ZNSo3putEc(%"class.std::basic_ostream"* nonnull align 8 dereferenceable(8) %110, i8 signext %137)
  %139 = call nonnull align 8 dereferenceable(8) %"class.std::basic_ostream"* @_ZNSo5flushEv(%"class.std::basic_ostream"* nonnull align 8 dereferenceable(8) %138)
  %140 = call nonnull align 8 dereferenceable(16) %"class.std::basic_istream"* @_ZNSirsERi(%"class.std::basic_istream"* nonnull align 8 dereferenceable(16) @_ZSt3cin, i32* nonnull align 4 dereferenceable(4) %3)
  %141 = bitcast %"class.std::basic_istream"* %140 to i8**
  %142 = load i8*, i8** %141, align 8, !tbaa !5
  %143 = getelementptr i8, i8* %142, i64 -24
  %144 = bitcast i8* %143 to i64*
  %145 = load i64, i64* %144, align 8
  %146 = bitcast %"class.std::basic_istream"* %140 to i8*
  %147 = add nsw i64 %145, 32
  %148 = getelementptr inbounds i8, i8* %146, i64 %147
  %149 = bitcast i8* %148 to i32*
  %150 = load i32, i32* %149, align 8, !tbaa !8
  %151 = and i32 %150, 5
  %152 = icmp ne i32 %151, 0
  %153 = load i32, i32* %3, align 16
  %154 = icmp eq i32 %153, -1
  %155 = select i1 %152, i1 true, i1 %154
  br i1 %155, label %156, label %29

156:                                              ; preds = %136, %0
  call void @llvm.lifetime.end.p0i8(i64 60, i8* nonnull %2) #8
  ret i32 0
}

; Function Attrs: argmemonly mustprogress nofree nosync nounwind willreturn
declare void @llvm.lifetime.start.p0i8(i64 immarg, i8* nocapture) #4

declare nonnull align 8 dereferenceable(16) %"class.std::basic_istream"* @_ZNSirsERi(%"class.std::basic_istream"* nonnull align 8 dereferenceable(16), i32* nonnull align 4 dereferenceable(4)) local_unnamed_addr #0

declare nonnull align 8 dereferenceable(8) %"class.std::basic_ostream"* @_ZNSolsEi(%"class.std::basic_ostream"* nonnull align 8 dereferenceable(8), i32) local_unnamed_addr #0

; Function Attrs: argmemonly mustprogress nofree nosync nounwind willreturn
declare void @llvm.lifetime.end.p0i8(i64 immarg, i8* nocapture) #4

declare nonnull align 8 dereferenceable(8) %"class.std::basic_ostream"* @_ZNSo3putEc(%"class.std::basic_ostream"* nonnull align 8 dereferenceable(8), i8 signext) local_unnamed_addr #0

declare nonnull align 8 dereferenceable(8) %"class.std::basic_ostream"* @_ZNSo5flushEv(%"class.std::basic_ostream"* nonnull align 8 dereferenceable(8)) local_unnamed_addr #0

; Function Attrs: noreturn
declare void @_ZSt16__throw_bad_castv() local_unnamed_addr #5

declare void @_ZNKSt5ctypeIcE13_M_widen_initEv(%"class.std::ctype"* nonnull align 8 dereferenceable(570)) local_unnamed_addr #0

; Function Attrs: sspstrong uwtable
define internal void @_GLOBAL__sub_I_672.cpp() #6 section ".text.startup" {
  tail call void @_ZNSt8ios_base4InitC1Ev(%"class.std::ios_base::Init"* nonnull align 1 dereferenceable(1) @_ZStL8__ioinit)
  %1 = tail call i32 @__cxa_atexit(void (i8*)* bitcast (void (%"class.std::ios_base::Init"*)* @_ZNSt8ios_base4InitD1Ev to void (i8*)*), i8* getelementptr inbounds (%"class.std::ios_base::Init", %"class.std::ios_base::Init"* @_ZStL8__ioinit, i64 0, i32 0), i8* nonnull @__dso_handle) #8
  ret void
}

; Function Attrs: nofree nosync nounwind readnone willreturn
declare i32 @llvm.vector.reduce.add.v4i32(<4 x i32>) #7


!llvm.module.flags = !{!0, !1, !2, !3}
!llvm.ident = !{!4}

!0 = !{i32 1, !"wchar_size", i32 4}
!1 = !{i32 7, !"PIC Level", i32 2}
!2 = !{i32 7, !"PIE Level", i32 2}
!3 = !{i32 7, !"uwtable", i32 1}
!4 = !{!"clang version 13.0.0"}
!5 = !{!6, !6, i64 0}
!6 = !{!"vtable pointer", !7, i64 0}
!7 = !{!"Simple C++ TBAA"}
!8 = !{!9, !13, i64 32}
!9 = !{!"_ZTSSt8ios_base", !10, i64 8, !10, i64 16, !12, i64 24, !13, i64 28, !13, i64 32, !14, i64 40, !15, i64 48, !11, i64 64, !16, i64 192, !14, i64 200, !17, i64 208}
!10 = !{!"long", !11, i64 0}
!11 = !{!"omnipotent char", !7, i64 0}
!12 = !{!"_ZTSSt13_Ios_Fmtflags", !11, i64 0}
!13 = !{!"_ZTSSt12_Ios_Iostate", !11, i64 0}
!14 = !{!"any pointer", !11, i64 0}
!15 = !{!"_ZTSNSt8ios_base6_WordsE", !14, i64 0, !10, i64 8}
!16 = !{!"int", !11, i64 0}
!17 = !{!"_ZTSSt6locale", !14, i64 0}
!18 = !{!16, !16, i64 0}
!19 = distinct !{!19, !20}
!20 = !{!"llvm.loop.mustprogress"}
!21 = distinct !{!21, !20}
!22 = distinct !{!22, !20, !23}
!23 = !{!"llvm.loop.isvectorized", i32 1}
!24 = distinct !{!24, !20, !25, !23}
!25 = !{!"llvm.loop.unroll.runtime.disable"}
!26 = !{!27, !14, i64 240}
!27 = !{!"_ZTSSt9basic_iosIcSt11char_traitsIcEE", !14, i64 216, !11, i64 224, !28, i64 225, !14, i64 232, !14, i64 240, !14, i64 248, !14, i64 256}
!28 = !{!"bool", !11, i64 0}
!29 = !{!30, !11, i64 56}
!30 = !{!"_ZTSSt5ctypeIcE", !14, i64 16, !28, i64 24, !14, i64 32, !14, i64 40, !14, i64 48, !11, i64 56, !11, i64 57, !11, i64 313, !11, i64 569}
!31 = !{!11, !11, i64 0}
